target datalayout = "e-m:e-p270:32:32-p271:32:32-p272:64:64-i64:64-i128:128-f80:128-n8:16:32:64-S128"
target triple = "x86_64-pc-linux-gnu"

; Function Attrs: nounwind uwtable
define i64 @validate_linsys_solver(i64 noundef %0) #0 {
  %2 = alloca i64, align 8
  %3 = alloca i64, align 8
  store i64 %0, ptr %3, align 8
  %4 = load i64, ptr %3, align 8
  %5 = icmp eq i64 %4, 2
  br i1 %5, label %6, label %11

6:                                                ; preds = %1
  %7 = call i64 @osqp_algebra_linsys_supported()
  %8 = and i64 %7, 2
  %9 = icmp ne i64 %8, 0
  br i1 %9, label %10, label %11

10:                                               ; preds = %6
  store i64 0, ptr %2, align 8
  br label %20

11:                                               ; preds = %6, %1
  %12 = load i64, ptr %3, align 8
  %13 = icmp eq i64 %12, 1
  br i1 %13, label %14, label %19

14:                                               ; preds = %11
  %15 = call i64 @osqp_algebra_linsys_supported()
  %16 = and i64 %15, 1
  %17 = icmp ne i64 %16, 0
  br i1 %17, label %18, label %19

18:                                               ; preds = %14
  store i64 0, ptr %2, align 8
  br label %20

19:                                               ; preds = %14, %11
  store i64 1, ptr %2, align 8
  br label %20

20:                                               ; preds = %19, %18, %10
  %21 = load i64, ptr %2, align 8
  ret i64 %21
}