; Function Attrs: nounwind uwtable
define range(i64 0, 2) i64 @validate_linsys_solver(i64 noundef %0) local_unnamed_addr #0 {
  switch i64 %0, label %8 [
    i64 2, label %2
    i64 1, label %5
  ]

2:                                                ; preds = %1
  %3 = tail call i64 @osqp_algebra_linsys_supported() #9
  %4 = and i64 %3, 2
  %.not = icmp eq i64 %4, 0
  br i1 %.not, label %8, label %9

5:                                                ; preds = %1
  %6 = tail call i64 @osqp_algebra_linsys_supported() #9
  %7 = and i64 %6, 1
  %.not3 = icmp eq i64 %7, 0
  br i1 %.not3, label %8, label %9

8:                                                ; preds = %2, %1, %5
  br label %9

9:                                                ; preds = %5, %2, %8
  %.0 = phi i64 [ 1, %8 ], [ 0, %2 ], [ 0, %5 ]
  ret i64 %.0
}